; Function Attrs: mustprogress nounwind uwtable
define internal fastcc void @_ZNSt10unique_ptrIN5folly6fibers12_GLOBAL__N_112FutureWaiterESt14default_deleteIS3_EED2Ev(ptr noundef nonnull align 8 captures(none) dereferenceable(8) %0) unnamed_addr #9 align 2 personality ptr @__gxx_personality_v0 {
  %2 = load ptr, ptr %0, align 8, !tbaa !73
  %.not = icmp eq ptr %2, null
  br i1 %.not, label %16, label %3

3:                                                ; preds = %1
  %4 = getelementptr inbounds nuw i8, ptr %2, i64 48
  %5 = load ptr, ptr %4, align 8, !tbaa !72
  %.not.i.i.i.i = icmp eq ptr %5, null
  br i1 %.not.i.i.i.i, label %_ZNKSt14default_deleteIN5folly6fibers12_GLOBAL__N_112FutureWaiterEEclEPS3_.exit, label %6

6:                                                ; preds = %3
  %7 = getelementptr inbounds nuw i8, ptr %2, i64 40
  %8 = load i8, ptr %7, align 8, !tbaa !56, !range !78, !noundef !79
  %9 = trunc nuw i8 %8 to i1
  br i1 %9, label %11, label %10

10:                                               ; preds = %6
  tail call void @_ZN5folly7futures6detail8CoreBase9detachOneEv(ptr noundef nonnull align 16 dereferenceable(136) %5) #5
  %.pre.i.i.i.i = load ptr, ptr %4, align 8, !tbaa !72
  br label %11

11:                                               ; preds = %10, %6
  %12 = phi ptr [ %.pre.i.i.i.i, %10 ], [ %5, %6 ]
  invoke void @_ZN5folly7futures6detail32coreDetachPromiseMaybeWithResultINS_4UnitEEEvRNS1_4CoreIT_EE(ptr noundef nonnull align 16 dereferenceable(160) %12)
          to label %_ZNKSt14default_deleteIN5folly6fibers12_GLOBAL__N_112FutureWaiterEEclEPS3_.exit unwind label %13

13:                                               ; preds = %11
  %14 = landingpad { ptr, i32 }
          catch ptr null
  %15 = extractvalue { ptr, i32 } %14, 0
  tail call void @__clang_call_terminate(ptr %15) #19
  unreachable

_ZNKSt14default_deleteIN5folly6fibers12_GLOBAL__N_112FutureWaiterEEclEPS3_.exit: ; preds = %3, %11
  tail call void @_ZdlPvm(ptr noundef nonnull %2, i64 noundef 56) #22
  br label %16

16:                                               ; preds = %_ZNKSt14default_deleteIN5folly6fibers12_GLOBAL__N_112FutureWaiterEEclEPS3_.exit, %1
  store ptr null, ptr %0, align 8, !tbaa !73
  ret void
}